target datalayout = "e-m:e-p270:32:32-p271:32:32-p272:64:64-i64:64-i128:128-f80:128-n8:16:32:64-S128"
target triple = "x86_64-pc-linux-gnu"

; Function Attrs: null_pointer_is_valid sspstrong uwtable
define internal i32 @dissect_lg8979_simple(ptr noundef %0, ptr noundef %1, ptr noundef %2, ptr noundef %3) #0 {
  %5 = alloca i32, align 4
  %6 = alloca ptr, align 8
  %7 = alloca ptr, align 8
  %8 = alloca ptr, align 8
  %9 = alloca ptr, align 8
  %10 = alloca i32, align 4
  %11 = alloca i32, align 4
  store ptr %0, ptr %6, align 8
  store ptr %1, ptr %7, align 8
  store ptr %2, ptr %8, align 8
  store ptr %3, ptr %9, align 8
  call void @llvm.lifetime.start.p0(i64 4, ptr %10) #4
  %12 = load ptr, ptr %6, align 8
  %13 = call i32 @tvb_reported_length(ptr noundef %12)
  store i32 %13, ptr %10, align 4
  %14 = load i32, ptr %10, align 4
  %15 = icmp slt i32 %14, 2
  br i1 %15, label %21, label %16

16:                                               ; preds = %4
  %17 = load ptr, ptr %6, align 8
  %18 = call zeroext i8 @tvb_get_uint8(ptr noundef %17, i32 noundef 0)
  %19 = zext i8 %18 to i32
  %20 = icmp ne i32 %19, 255
  br i1 %20, label %21, label %22

21:                                               ; preds = %16, %4
  store i32 0, ptr %5, align 4
  store i32 1, ptr %11, align 4
  br label %29

22:                                               ; preds = %16
  %23 = load ptr, ptr %6, align 8
  %24 = load ptr, ptr %7, align 8
  %25 = load ptr, ptr %8, align 8
  %26 = load ptr, ptr %9, align 8
  %27 = call i32 @dissect_lg8979(ptr noundef %23, ptr noundef %24, ptr noundef %25, ptr noundef %26)
  %28 = load i32, ptr %10, align 4
  store i32 %28, ptr %5, align 4
  store i32 1, ptr %11, align 4
  br label %29

29:                                               ; preds = %22, %21
  call void @llvm.lifetime.end.p0(i64 4, ptr %10) #4
  %30 = load i32, ptr %5, align 4
  ret i32 %30
}