; Function Attrs: null_pointer_is_valid sspstrong uwtable
define internal range(i32 0, -2147483648) i32 @dissect_lg8979_simple(ptr noundef %0, ptr noundef readonly captures(none) %1, ptr noundef %2, ptr noundef readnone captures(none) %3) #0 {
  %5 = tail call i32 @tvb_reported_length(ptr noundef %0)
  %6 = icmp slt i32 %5, 2
  br i1 %6, label %11, label %7

7:                                                ; preds = %4
  %8 = tail call zeroext i8 @tvb_get_uint8(ptr noundef %0, i32 noundef 0)
  %.not = icmp eq i8 %8, -1
  br i1 %.not, label %9, label %11

9:                                                ; preds = %7
  %10 = tail call i32 @dissect_lg8979(ptr noundef %0, ptr noundef %1, ptr noundef %2, ptr poison)
  br label %11

11:                                               ; preds = %4, %7, %9
  %.0 = phi i32 [ %5, %9 ], [ 0, %7 ], [ 0, %4 ]
  ret i32 %.0
}